; Function Attrs: mustprogress nounwind uwtable
define hidden void @_ZN7XTracer17send_stat_samplerERK12XStatSamplerm(ptr nocapture noundef nonnull readnone align 8 dereferenceable(80) %0, ptr noundef nonnull align 8 dereferenceable(40) %1, i64 noundef %2) local_unnamed_addr #1 align 2 {
  %4 = alloca %class.EventZStatisticsSampler, align 8
  %5 = getelementptr inbounds i8, ptr %4, i64 17
  %6 = getelementptr inbounds i8, ptr %4, i64 18
  %7 = getelementptr inbounds i8, ptr %4, i64 8
  call void @llvm.memset.p0.i64(ptr noundef nonnull align 8 dereferenceable(11) %7, i8 0, i64 11, i1 false)
  %8 = load i8, ptr getelementptr inbounds (i8, ptr @_ZN15JfrEventSetting19_jvm_event_settingsE, i64 3641), align 1
  %9 = icmp eq i8 %8, 0
  br i1 %9, label %_ZN8JfrEventI23EventZStatisticsSamplerE13should_commitEv.exit.thread, label %_ZN23EventZStatisticsSamplerC2E14EventStartTime.exit

_ZN23EventZStatisticsSamplerC2E14EventStartTime.exit: ; preds = %3
  %10 = tail call noundef i64 @_ZN33FastUnorderedElapsedCounterSource3nowEv() #10
  store i64 %10, ptr %4, align 8
  %.pr = load i8, ptr getelementptr inbounds (i8, ptr @_ZN15JfrEventSetting19_jvm_event_settingsE, i64 3641), align 1
  %.not.i = icmp eq i8 %.pr, 0
  br i1 %.not.i, label %_ZN8JfrEventI23EventZStatisticsSamplerE13should_commitEv.exit.thread, label %11

11:                                               ; preds = %_ZN23EventZStatisticsSamplerC2E14EventStartTime.exit
  %12 = icmp eq i64 %10, 0
  br i1 %12, label %13, label %15

13:                                               ; preds = %11
  %14 = tail call noundef i64 @_ZN33FastUnorderedElapsedCounterSource3nowEv() #10
  store i64 %14, ptr %4, align 8
  br label %_ZN8JfrEventI23EventZStatisticsSamplerE13should_commitEv.exit

15:                                               ; preds = %11
  %16 = getelementptr inbounds i8, ptr %4, i64 8
  %17 = tail call noundef i64 @_ZN33FastUnorderedElapsedCounterSource3nowEv() #10
  store i64 %17, ptr %16, align 8
  br label %_ZN8JfrEventI23EventZStatisticsSamplerE13should_commitEv.exit

_ZN8JfrEventI23EventZStatisticsSamplerE13should_commitEv.exit: ; preds = %13, %15
  %18 = phi i64 [ %10, %15 ], [ %14, %13 ]
  %19 = phi i64 [ %17, %15 ], [ 0, %13 ]
  %20 = sub nsw i64 %19, %18
  %21 = load i64, ptr getelementptr inbounds (i8, ptr @_ZN15JfrEventSetting19_jvm_event_settingsE, i64 3624), align 8
  %22 = icmp sge i64 %20, %21
  %23 = zext i1 %22 to i8
  store i8 %23, ptr %5, align 1
  store i8 1, ptr %6, align 2
  br i1 %22, label %_ZN8JfrEventI23EventZStatisticsSamplerE13should_commitEv.exit.thread3, label %_ZN8JfrEventI23EventZStatisticsSamplerE13should_commitEv.exit.thread

_ZN8JfrEventI23EventZStatisticsSamplerE13should_commitEv.exit.thread3: ; preds = %_ZN8JfrEventI23EventZStatisticsSamplerE13should_commitEv.exit
  %24 = tail call noundef i32 @_ZNK10XStatValue2idEv(ptr noundef nonnull align 8 dereferenceable(24) %1) #10
  %25 = zext i32 %24 to i64
  %26 = getelementptr inbounds i8, ptr %4, i64 24
  store i64 %25, ptr %26, align 8
  %27 = getelementptr inbounds i8, ptr %4, i64 32
  store i64 %2, ptr %27, align 8
  call void @_ZN8JfrEventI23EventZStatisticsSamplerE6commitEv(ptr noundef nonnull align 8 dereferenceable(19) %4)
  br label %_ZN8JfrEventI23EventZStatisticsSamplerE13should_commitEv.exit.thread

_ZN8JfrEventI23EventZStatisticsSamplerE13should_commitEv.exit.thread: ; preds = %3, %_ZN23EventZStatisticsSamplerC2E14EventStartTime.exit, %_ZN8JfrEventI23EventZStatisticsSamplerE13should_commitEv.exit.thread3, %_ZN8JfrEventI23EventZStatisticsSamplerE13should_commitEv.exit
  ret void
}